; Function Attrs: nounwind uwtable
define dso_local noundef i32 @dbuf_putstr(ptr nocapture noundef %0, ptr nocapture noundef readonly %1) local_unnamed_addr #8 {
  %3 = tail call i64 @strlen(ptr noundef nonnull dereferenceable(1) %1) #17
  %4 = getelementptr inbounds i8, ptr %0, i64 8
  %5 = load i64, ptr %4, align 8
  %6 = add i64 %5, %3
  %7 = getelementptr inbounds i8, ptr %0, i64 16
  %8 = load i64, ptr %7, align 8
  %9 = icmp ugt i64 %6, %8
  br i1 %9, label %10, label %._crit_edge.i

._crit_edge.i:                                    ; preds = %2
  %.pre.i = load ptr, ptr %0, align 8
  br label %23

10:                                               ; preds = %2
  %11 = getelementptr inbounds i8, ptr %0, i64 24
  %12 = load i32, ptr %11, align 8
  %.not.i.i = icmp eq i32 %12, 0
  br i1 %.not.i.i, label %13, label %dbuf_put.exit

13:                                               ; preds = %10
  %14 = mul i64 %8, 3
  %15 = lshr i64 %14, 1
  %spec.select.i.i = tail call i64 @llvm.umax.i64(i64 %15, i64 %6)
  %16 = getelementptr inbounds i8, ptr %0, i64 32
  %17 = load ptr, ptr %16, align 8
  %18 = getelementptr inbounds i8, ptr %0, i64 40
  %19 = load ptr, ptr %18, align 8
  %20 = load ptr, ptr %0, align 8
  %21 = tail call ptr %17(ptr noundef %19, ptr noundef %20, i64 noundef %spec.select.i.i) #19
  %.not22.i.i = icmp eq ptr %21, null
  br i1 %.not22.i.i, label %22, label %dbuf_realloc.exit.i

22:                                               ; preds = %13
  store i32 1, ptr %11, align 8
  br label %dbuf_put.exit

dbuf_realloc.exit.i:                              ; preds = %13
  store ptr %21, ptr %0, align 8
  store i64 %spec.select.i.i, ptr %7, align 8
  %.pre15.i = load i64, ptr %4, align 8
  br label %23

23:                                               ; preds = %dbuf_realloc.exit.i, %._crit_edge.i
  %24 = phi i64 [ %5, %._crit_edge.i ], [ %.pre15.i, %dbuf_realloc.exit.i ]
  %25 = phi ptr [ %.pre.i, %._crit_edge.i ], [ %21, %dbuf_realloc.exit.i ]
  %26 = getelementptr i8, ptr %25, i64 %24
  tail call void @llvm.memcpy.p0.p0.i64(ptr align 1 %26, ptr align 1 %1, i64 %3, i1 false)
  %27 = load i64, ptr %4, align 8
  %28 = add i64 %27, %3
  store i64 %28, ptr %4, align 8
  br label %dbuf_put.exit

dbuf_put.exit:                                    ; preds = %10, %22, %23
  %.0.i = phi i32 [ 0, %23 ], [ -1, %22 ], [ -1, %10 ]
  ret i32 %.0.i
}